
GccApplicationTPM100.elf:     file format elf32-avr

Sections:
Idx Name          Size      VMA       LMA       File off  Algn
  0 .data         00000010  00800100  00000466  000004fa  2**0
                  CONTENTS, ALLOC, LOAD, DATA
  1 .text         00000466  00000000  00000000  00000094  2**1
                  CONTENTS, ALLOC, LOAD, READONLY, CODE
  2 .bss          00000002  00800110  00800110  0000050a  2**0
                  ALLOC
  3 .stab         000006cc  00000000  00000000  0000050c  2**2
                  CONTENTS, READONLY, DEBUGGING
  4 .stabstr      00000085  00000000  00000000  00000bd8  2**0
                  CONTENTS, READONLY, DEBUGGING
  5 .debug_aranges 000000a0  00000000  00000000  00000c60  2**3
                  CONTENTS, READONLY, DEBUGGING
  6 .debug_info   00000677  00000000  00000000  00000d00  2**0
                  CONTENTS, READONLY, DEBUGGING
  7 .debug_abbrev 000001f4  00000000  00000000  00001377  2**0
                  CONTENTS, READONLY, DEBUGGING
  8 .debug_line   000004ba  00000000  00000000  0000156b  2**0
                  CONTENTS, READONLY, DEBUGGING
  9 .debug_frame  00000134  00000000  00000000  00001a28  2**2
                  CONTENTS, READONLY, DEBUGGING
 10 .debug_str    00000179  00000000  00000000  00001b5c  2**0
                  CONTENTS, READONLY, DEBUGGING
 11 .debug_loc    000003a1  00000000  00000000  00001cd5  2**0
                  CONTENTS, READONLY, DEBUGGING

Disassembly of section .text:

00000000 <__vectors>:
   0:	0c 94 34 00 	jmp	0x68	; 0x68 <__ctors_end>
   4:	0c 94 51 00 	jmp	0xa2	; 0xa2 <__bad_interrupt>
   8:	0c 94 51 00 	jmp	0xa2	; 0xa2 <__bad_interrupt>
   c:	0c 94 51 00 	jmp	0xa2	; 0xa2 <__bad_interrupt>
  10:	0c 94 51 00 	jmp	0xa2	; 0xa2 <__bad_interrupt>
  14:	0c 94 51 00 	jmp	0xa2	; 0xa2 <__bad_interrupt>
  18:	0c 94 51 00 	jmp	0xa2	; 0xa2 <__bad_interrupt>
  1c:	0c 94 51 00 	jmp	0xa2	; 0xa2 <__bad_interrupt>
  20:	0c 94 51 00 	jmp	0xa2	; 0xa2 <__bad_interrupt>
  24:	0c 94 51 00 	jmp	0xa2	; 0xa2 <__bad_interrupt>
  28:	0c 94 51 00 	jmp	0xa2	; 0xa2 <__bad_interrupt>
  2c:	0c 94 51 00 	jmp	0xa2	; 0xa2 <__bad_interrupt>
  30:	0c 94 51 00 	jmp	0xa2	; 0xa2 <__bad_interrupt>
  34:	0c 94 53 01 	jmp	0x2a6	; 0x2a6 <__vector_13>
  38:	0c 94 51 00 	jmp	0xa2	; 0xa2 <__bad_interrupt>
  3c:	0c 94 51 00 	jmp	0xa2	; 0xa2 <__bad_interrupt>
  40:	0c 94 51 00 	jmp	0xa2	; 0xa2 <__bad_interrupt>
  44:	0c 94 51 00 	jmp	0xa2	; 0xa2 <__bad_interrupt>
  48:	0c 94 51 00 	jmp	0xa2	; 0xa2 <__bad_interrupt>
  4c:	0c 94 51 00 	jmp	0xa2	; 0xa2 <__bad_interrupt>
  50:	0c 94 51 00 	jmp	0xa2	; 0xa2 <__bad_interrupt>
  54:	0c 94 51 00 	jmp	0xa2	; 0xa2 <__bad_interrupt>
  58:	0c 94 51 00 	jmp	0xa2	; 0xa2 <__bad_interrupt>
  5c:	0c 94 51 00 	jmp	0xa2	; 0xa2 <__bad_interrupt>
  60:	0c 94 51 00 	jmp	0xa2	; 0xa2 <__bad_interrupt>
  64:	0c 94 51 00 	jmp	0xa2	; 0xa2 <__bad_interrupt>

00000068 <__ctors_end>:
  68:	11 24       	eor	r1, r1
  6a:	1f be       	out	0x3f, r1	; 63
  6c:	cf ef       	ldi	r28, 0xFF	; 255
  6e:	d4 e0       	ldi	r29, 0x04	; 4
  70:	de bf       	out	0x3e, r29	; 62
  72:	cd bf       	out	0x3d, r28	; 61

00000074 <__do_copy_data>:
  74:	11 e0       	ldi	r17, 0x01	; 1
  76:	a0 e0       	ldi	r26, 0x00	; 0
  78:	b1 e0       	ldi	r27, 0x01	; 1
  7a:	e6 e6       	ldi	r30, 0x66	; 102
  7c:	f4 e0       	ldi	r31, 0x04	; 4
  7e:	02 c0       	rjmp	.+4      	; 0x84 <__do_copy_data+0x10>
  80:	05 90       	lpm	r0, Z+
  82:	0d 92       	st	X+, r0
  84:	a0 31       	cpi	r26, 0x10	; 16
  86:	b1 07       	cpc	r27, r17
  88:	d9 f7       	brne	.-10     	; 0x80 <__do_copy_data+0xc>

0000008a <__do_clear_bss>:
  8a:	11 e0       	ldi	r17, 0x01	; 1
  8c:	a0 e1       	ldi	r26, 0x10	; 16
  8e:	b1 e0       	ldi	r27, 0x01	; 1
  90:	01 c0       	rjmp	.+2      	; 0x94 <.do_clear_bss_start>

00000092 <.do_clear_bss_loop>:
  92:	1d 92       	st	X+, r1

00000094 <.do_clear_bss_start>:
  94:	a2 31       	cpi	r26, 0x12	; 18
  96:	b1 07       	cpc	r27, r17
  98:	e1 f7       	brne	.-8      	; 0x92 <.do_clear_bss_loop>
  9a:	0e 94 df 01 	call	0x3be	; 0x3be <main>
  9e:	0c 94 31 02 	jmp	0x462	; 0x462 <_exit>

000000a2 <__bad_interrupt>:
  a2:	0c 94 00 00 	jmp	0	; 0x0 <__vectors>

000000a6 <Twi_Init>:


//TWI初始化
void Twi_Init(void)
   {
   TWBR=10;
  a6:	8a e0       	ldi	r24, 0x0A	; 10
  a8:	80 93 b8 00 	sts	0x00B8, r24
   TWSR=0;
  ac:	10 92 b9 00 	sts	0x00B9, r1
   }
  b0:	08 95       	ret

000000b2 <TMP100_Write>:
uchar TMP100_Write(uchar slv_addw,uchar sub_suba,uchar Wdata)
{
	Start();
  b2:	94 ea       	ldi	r25, 0xA4	; 164
  b4:	90 93 bc 00 	sts	0x00BC, r25
	Wait();
  b8:	ec eb       	ldi	r30, 0xBC	; 188
  ba:	f0 e0       	ldi	r31, 0x00	; 0
  bc:	90 81       	ld	r25, Z
  be:	99 23       	and	r25, r25
  c0:	ec f7       	brge	.-6      	; 0xbc <TMP100_Write+0xa>
	if(TestAck()!=START)return I2C_CRR;
  c2:	90 91 b9 00 	lds	r25, 0x00B9
  c6:	98 7f       	andi	r25, 0xF8	; 248
  c8:	98 30       	cpi	r25, 0x08	; 8
  ca:	91 f5       	brne	.+100    	; 0x130 <TMP100_Write+0x7e>
	SendByte(slv_addw);
  cc:	80 93 bb 00 	sts	0x00BB, r24
  d0:	84 e8       	ldi	r24, 0x84	; 132
  d2:	80 93 bc 00 	sts	0x00BC, r24
	Wait();
  d6:	ec eb       	ldi	r30, 0xBC	; 188
  d8:	f0 e0       	ldi	r31, 0x00	; 0
  da:	80 81       	ld	r24, Z
  dc:	88 23       	and	r24, r24
  de:	ec f7       	brge	.-6      	; 0xda <TMP100_Write+0x28>
	if(TestAck()!=MT_SLA_ACK)return I2C_CRR;
  e0:	80 91 b9 00 	lds	r24, 0x00B9
  e4:	88 7f       	andi	r24, 0xF8	; 248
  e6:	88 31       	cpi	r24, 0x18	; 24
  e8:	29 f5       	brne	.+74     	; 0x134 <TMP100_Write+0x82>
	SendByte(sub_suba);
  ea:	60 93 bb 00 	sts	0x00BB, r22
  ee:	84 e8       	ldi	r24, 0x84	; 132
  f0:	80 93 bc 00 	sts	0x00BC, r24
	Wait();
  f4:	ec eb       	ldi	r30, 0xBC	; 188
  f6:	f0 e0       	ldi	r31, 0x00	; 0
  f8:	80 81       	ld	r24, Z
  fa:	88 23       	and	r24, r24
  fc:	ec f7       	brge	.-6      	; 0xf8 <TMP100_Write+0x46>
	if(TestAck()!=MT_DATA_ACK)return I2C_CRR;
  fe:	80 91 b9 00 	lds	r24, 0x00B9
 102:	88 7f       	andi	r24, 0xF8	; 248
 104:	88 32       	cpi	r24, 0x28	; 40
 106:	c1 f4       	brne	.+48     	; 0x138 <TMP100_Write+0x86>
	SendByte(Wdata);
 108:	40 93 bb 00 	sts	0x00BB, r20
 10c:	84 e8       	ldi	r24, 0x84	; 132
 10e:	80 93 bc 00 	sts	0x00BC, r24
	Wait();
 112:	ec eb       	ldi	r30, 0xBC	; 188
 114:	f0 e0       	ldi	r31, 0x00	; 0
 116:	80 81       	ld	r24, Z
 118:	88 23       	and	r24, r24
 11a:	ec f7       	brge	.-6      	; 0x116 <TMP100_Write+0x64>
	if(TestAck()!=MT_DATA_ACK)return I2C_CRR;
 11c:	80 91 b9 00 	lds	r24, 0x00B9
 120:	88 7f       	andi	r24, 0xF8	; 248
 122:	88 32       	cpi	r24, 0x28	; 40
 124:	59 f4       	brne	.+22     	; 0x13c <TMP100_Write+0x8a>
	stop();
 126:	84 e9       	ldi	r24, 0x94	; 148
 128:	80 93 bc 00 	sts	0x00BC, r24
	return I2C_ERR;
 12c:	80 e0       	ldi	r24, 0x00	; 0
 12e:	08 95       	ret
   }
uchar TMP100_Write(uchar slv_addw,uchar sub_suba,uchar Wdata)
{
	Start();
	Wait();
	if(TestAck()!=START)return I2C_CRR;
 130:	81 e0       	ldi	r24, 0x01	; 1
 132:	08 95       	ret
	SendByte(slv_addw);
	Wait();
	if(TestAck()!=MT_SLA_ACK)return I2C_CRR;
 134:	81 e0       	ldi	r24, 0x01	; 1
 136:	08 95       	ret
	SendByte(sub_suba);
	Wait();
	if(TestAck()!=MT_DATA_ACK)return I2C_CRR;
 138:	81 e0       	ldi	r24, 0x01	; 1
 13a:	08 95       	ret
	SendByte(Wdata);
	Wait();
	if(TestAck()!=MT_DATA_ACK)return I2C_CRR;
 13c:	81 e0       	ldi	r24, 0x01	; 1
	stop();
	return I2C_ERR;
}
 13e:	08 95       	ret

00000140 <TMP100_Read>:
uchar TMP100_Read(uchar slv_addr,uchar suba,uchar *s,uchar no)
{
 140:	ef 92       	push	r14
 142:	ff 92       	push	r15
 144:	0f 93       	push	r16
 146:	1f 93       	push	r17
 148:	cf 93       	push	r28
 14a:	df 93       	push	r29
	uchar n;
	Start();
 14c:	94 ea       	ldi	r25, 0xA4	; 164
 14e:	90 93 bc 00 	sts	0x00BC, r25
	Wait();
 152:	ec eb       	ldi	r30, 0xBC	; 188
 154:	f0 e0       	ldi	r31, 0x00	; 0
 156:	90 81       	ld	r25, Z
 158:	99 23       	and	r25, r25
 15a:	ec f7       	brge	.-6      	; 0x156 <TMP100_Read+0x16>
	if(TestAck()!=START)return 1;
 15c:	90 91 b9 00 	lds	r25, 0x00B9
 160:	98 7f       	andi	r25, 0xF8	; 248
 162:	98 30       	cpi	r25, 0x08	; 8
 164:	09 f0       	breq	.+2      	; 0x168 <TMP100_Read+0x28>
 166:	7d c0       	rjmp	.+250    	; 0x262 <TMP100_Read+0x122>
	SendByte(slv_addr-1);
 168:	98 2f       	mov	r25, r24
 16a:	91 50       	subi	r25, 0x01	; 1
 16c:	90 93 bb 00 	sts	0x00BB, r25
 170:	94 e8       	ldi	r25, 0x84	; 132
 172:	90 93 bc 00 	sts	0x00BC, r25
	Wait();
 176:	ec eb       	ldi	r30, 0xBC	; 188
 178:	f0 e0       	ldi	r31, 0x00	; 0
 17a:	90 81       	ld	r25, Z
 17c:	99 23       	and	r25, r25
 17e:	ec f7       	brge	.-6      	; 0x17a <TMP100_Read+0x3a>
	if(TestAck()!=MT_SLA_ACK)return 1;
 180:	90 91 b9 00 	lds	r25, 0x00B9
 184:	98 7f       	andi	r25, 0xF8	; 248
 186:	98 31       	cpi	r25, 0x18	; 24
 188:	09 f0       	breq	.+2      	; 0x18c <TMP100_Read+0x4c>
 18a:	6d c0       	rjmp	.+218    	; 0x266 <TMP100_Read+0x126>
	SendByte(suba);
 18c:	60 93 bb 00 	sts	0x00BB, r22
 190:	94 e8       	ldi	r25, 0x84	; 132
 192:	90 93 bc 00 	sts	0x00BC, r25
	Wait();
 196:	ec eb       	ldi	r30, 0xBC	; 188
 198:	f0 e0       	ldi	r31, 0x00	; 0
 19a:	90 81       	ld	r25, Z
 19c:	99 23       	and	r25, r25
 19e:	ec f7       	brge	.-6      	; 0x19a <TMP100_Read+0x5a>
	if(TestAck()!=MT_DATA_ACK)return 1;
 1a0:	90 91 b9 00 	lds	r25, 0x00B9
 1a4:	98 7f       	andi	r25, 0xF8	; 248
 1a6:	98 32       	cpi	r25, 0x28	; 40
 1a8:	09 f0       	breq	.+2      	; 0x1ac <TMP100_Read+0x6c>
 1aa:	5f c0       	rjmp	.+190    	; 0x26a <TMP100_Read+0x12a>
	stop();
 1ac:	ec eb       	ldi	r30, 0xBC	; 188
 1ae:	f0 e0       	ldi	r31, 0x00	; 0
 1b0:	94 e9       	ldi	r25, 0x94	; 148
 1b2:	90 83       	st	Z, r25
	Start();
 1b4:	94 ea       	ldi	r25, 0xA4	; 164
 1b6:	90 83       	st	Z, r25
	Wait();
 1b8:	90 81       	ld	r25, Z
 1ba:	99 23       	and	r25, r25
 1bc:	ec f7       	brge	.-6      	; 0x1b8 <TMP100_Read+0x78>
	if(TestAck()!=RESTART)return 1;
 1be:	90 91 b9 00 	lds	r25, 0x00B9
 1c2:	98 7f       	andi	r25, 0xF8	; 248
 1c4:	90 31       	cpi	r25, 0x10	; 16
 1c6:	09 f0       	breq	.+2      	; 0x1ca <TMP100_Read+0x8a>
 1c8:	52 c0       	rjmp	.+164    	; 0x26e <TMP100_Read+0x12e>
	SendByte(slv_addr);
 1ca:	80 93 bb 00 	sts	0x00BB, r24
 1ce:	84 e8       	ldi	r24, 0x84	; 132
 1d0:	80 93 bc 00 	sts	0x00BC, r24
	Wait();
 1d4:	ec eb       	ldi	r30, 0xBC	; 188
 1d6:	f0 e0       	ldi	r31, 0x00	; 0
 1d8:	80 81       	ld	r24, Z
 1da:	88 23       	and	r24, r24
 1dc:	ec f7       	brge	.-6      	; 0x1d8 <TMP100_Read+0x98>
	if(TestAck()!=MR_SLA_ACK)return 1;
 1de:	80 91 b9 00 	lds	r24, 0x00B9
 1e2:	88 7f       	andi	r24, 0xF8	; 248
 1e4:	80 34       	cpi	r24, 0x40	; 64
 1e6:	09 f0       	breq	.+2      	; 0x1ea <TMP100_Read+0xaa>
 1e8:	44 c0       	rjmp	.+136    	; 0x272 <TMP100_Read+0x132>
	for (n=0;n<no-1;n++)
 1ea:	30 e0       	ldi	r19, 0x00	; 0
 1ec:	21 50       	subi	r18, 0x01	; 1
 1ee:	30 40       	sbci	r19, 0x00	; 0
 1f0:	12 16       	cp	r1, r18
 1f2:	13 06       	cpc	r1, r19
 1f4:	04 f5       	brge	.+64     	; 0x236 <TMP100_Read+0xf6>
 1f6:	04 2f       	mov	r16, r20
 1f8:	a4 2f       	mov	r26, r20
 1fa:	b5 2f       	mov	r27, r21
	{
		rcvAckByte();
 1fc:	ec eb       	ldi	r30, 0xBC	; 188
 1fe:	f0 e0       	ldi	r31, 0x00	; 0
 200:	14 ec       	ldi	r17, 0xC4	; 196
		Wait();
		if(TestAck()!=MR_DATA_ACK)return 1;
 202:	0f 2e       	mov	r0, r31
 204:	f9 eb       	ldi	r31, 0xB9	; 185
 206:	ef 2e       	mov	r14, r31
 208:	ff 24       	eor	r15, r15
 20a:	f0 2d       	mov	r31, r0
		*s=TWDR;
 20c:	6b eb       	ldi	r22, 0xBB	; 187
 20e:	70 e0       	ldi	r23, 0x00	; 0
	SendByte(slv_addr);
	Wait();
	if(TestAck()!=MR_SLA_ACK)return 1;
	for (n=0;n<no-1;n++)
	{
		rcvAckByte();
 210:	10 83       	st	Z, r17
		Wait();
 212:	80 81       	ld	r24, Z
 214:	88 23       	and	r24, r24
 216:	ec f7       	brge	.-6      	; 0x212 <TMP100_Read+0xd2>
		if(TestAck()!=MR_DATA_ACK)return 1;
 218:	e7 01       	movw	r28, r14
 21a:	88 81       	ld	r24, Y
 21c:	88 7f       	andi	r24, 0xF8	; 248
 21e:	80 35       	cpi	r24, 0x50	; 80
 220:	51 f5       	brne	.+84     	; 0x276 <TMP100_Read+0x136>
		*s=TWDR;
 222:	eb 01       	movw	r28, r22
 224:	88 81       	ld	r24, Y
 226:	8d 93       	st	X+, r24
		s++;
 228:	ad 01       	movw	r20, r26
	Wait();
	if(TestAck()!=MT_DATA_ACK)return I2C_CRR;
	stop();
	return I2C_ERR;
}
uchar TMP100_Read(uchar slv_addr,uchar suba,uchar *s,uchar no)
 22a:	8a 2f       	mov	r24, r26
 22c:	80 1b       	sub	r24, r16
	Wait();
	if(TestAck()!=RESTART)return 1;
	SendByte(slv_addr);
	Wait();
	if(TestAck()!=MR_SLA_ACK)return 1;
	for (n=0;n<no-1;n++)
 22e:	90 e0       	ldi	r25, 0x00	; 0
 230:	82 17       	cp	r24, r18
 232:	93 07       	cpc	r25, r19
 234:	6c f3       	brlt	.-38     	; 0x210 <TMP100_Read+0xd0>
		Wait();
		if(TestAck()!=MR_DATA_ACK)return 1;
		*s=TWDR;
		s++;
	}
	rcvNackByte();
 236:	84 e8       	ldi	r24, 0x84	; 132
 238:	80 93 bc 00 	sts	0x00BC, r24
	Wait();
 23c:	ec eb       	ldi	r30, 0xBC	; 188
 23e:	f0 e0       	ldi	r31, 0x00	; 0
 240:	80 81       	ld	r24, Z
 242:	88 23       	and	r24, r24
 244:	ec f7       	brge	.-6      	; 0x240 <TMP100_Read+0x100>
	if(TestAck()!=MR_DATA_NACK)return 1;
 246:	80 91 b9 00 	lds	r24, 0x00B9
 24a:	88 7f       	andi	r24, 0xF8	; 248
 24c:	88 35       	cpi	r24, 0x58	; 88
 24e:	a9 f4       	brne	.+42     	; 0x27a <TMP100_Read+0x13a>
	*s=TWDR;
 250:	80 91 bb 00 	lds	r24, 0x00BB
 254:	fa 01       	movw	r30, r20
 256:	80 83       	st	Z, r24
	
	stop();
 258:	84 e9       	ldi	r24, 0x94	; 148
 25a:	80 93 bc 00 	sts	0x00BC, r24
	return 0;	
 25e:	80 e0       	ldi	r24, 0x00	; 0
 260:	0d c0       	rjmp	.+26     	; 0x27c <TMP100_Read+0x13c>
uchar TMP100_Read(uchar slv_addr,uchar suba,uchar *s,uchar no)
{
	uchar n;
	Start();
	Wait();
	if(TestAck()!=START)return 1;
 262:	81 e0       	ldi	r24, 0x01	; 1
 264:	0b c0       	rjmp	.+22     	; 0x27c <TMP100_Read+0x13c>
	SendByte(slv_addr-1);
	Wait();
	if(TestAck()!=MT_SLA_ACK)return 1;
 266:	81 e0       	ldi	r24, 0x01	; 1
 268:	09 c0       	rjmp	.+18     	; 0x27c <TMP100_Read+0x13c>
	SendByte(suba);
	Wait();
	if(TestAck()!=MT_DATA_ACK)return 1;
 26a:	81 e0       	ldi	r24, 0x01	; 1
 26c:	07 c0       	rjmp	.+14     	; 0x27c <TMP100_Read+0x13c>
	stop();
	Start();
	Wait();
	if(TestAck()!=RESTART)return 1;
 26e:	81 e0       	ldi	r24, 0x01	; 1
 270:	05 c0       	rjmp	.+10     	; 0x27c <TMP100_Read+0x13c>
	SendByte(slv_addr);
	Wait();
	if(TestAck()!=MR_SLA_ACK)return 1;
 272:	81 e0       	ldi	r24, 0x01	; 1
 274:	03 c0       	rjmp	.+6      	; 0x27c <TMP100_Read+0x13c>
	for (n=0;n<no-1;n++)
	{
		rcvAckByte();
		Wait();
		if(TestAck()!=MR_DATA_ACK)return 1;
 276:	81 e0       	ldi	r24, 0x01	; 1
 278:	01 c0       	rjmp	.+2      	; 0x27c <TMP100_Read+0x13c>
		*s=TWDR;
		s++;
	}
	rcvNackByte();
	Wait();
	if(TestAck()!=MR_DATA_NACK)return 1;
 27a:	81 e0       	ldi	r24, 0x01	; 1
	*s=TWDR;
	
	stop();
	return 0;	
}
 27c:	df 91       	pop	r29
 27e:	cf 91       	pop	r28
 280:	1f 91       	pop	r17
 282:	0f 91       	pop	r16
 284:	ff 90       	pop	r15
 286:	ef 90       	pop	r14
 288:	08 95       	ret

0000028a <Timer1_init>:
void Timer1_init(void)
{
	TCCR1B=0x00;
 28a:	e1 e8       	ldi	r30, 0x81	; 129
 28c:	f0 e0       	ldi	r31, 0x00	; 0
 28e:	10 82       	st	Z, r1
	TCNT1H=0x90;
 290:	80 e9       	ldi	r24, 0x90	; 144
 292:	80 93 85 00 	sts	0x0085, r24
	TCNT1L=0xFF;
 296:	8f ef       	ldi	r24, 0xFF	; 255
 298:	80 93 84 00 	sts	0x0084, r24
	TCCR1A=0x00;
 29c:	10 92 80 00 	sts	0x0080, r1
	TCCR1B=0x03;
 2a0:	83 e0       	ldi	r24, 0x03	; 3
 2a2:	80 83       	st	Z, r24
}
 2a4:	08 95       	ret

000002a6 <__vector_13>:
SIGNAL(TIMER1_OVF_vect)
{
 2a6:	1f 92       	push	r1
 2a8:	0f 92       	push	r0
 2aa:	0f b6       	in	r0, 0x3f	; 63
 2ac:	0f 92       	push	r0
 2ae:	11 24       	eor	r1, r1
 2b0:	2f 93       	push	r18
 2b2:	3f 93       	push	r19
 2b4:	4f 93       	push	r20
 2b6:	5f 93       	push	r21
 2b8:	6f 93       	push	r22
 2ba:	7f 93       	push	r23
 2bc:	8f 93       	push	r24
 2be:	9f 93       	push	r25
 2c0:	af 93       	push	r26
 2c2:	bf 93       	push	r27
 2c4:	ef 93       	push	r30
 2c6:	ff 93       	push	r31
	TCNT1H=0x90;
 2c8:	80 e9       	ldi	r24, 0x90	; 144
 2ca:	80 93 85 00 	sts	0x0085, r24
	TCNT1L=0xFF;
 2ce:	8f ef       	ldi	r24, 0xFF	; 255
 2d0:	80 93 84 00 	sts	0x0084, r24
	//TMP100_Write(0x92,0x01,0x60);
	//TWBR=2;
	//TMP100_Write(0x94,0x00,0x00);
	//TWBR=2;
	TMP100_Read(0x93,0x00,buff,2);
 2d4:	83 e9       	ldi	r24, 0x93	; 147
 2d6:	60 e0       	ldi	r22, 0x00	; 0
 2d8:	40 e1       	ldi	r20, 0x10	; 16
 2da:	51 e0       	ldi	r21, 0x01	; 1
 2dc:	22 e0       	ldi	r18, 0x02	; 2
 2de:	0e 94 a0 00 	call	0x140	; 0x140 <TMP100_Read>
	//buff[0]=0x30;
	//TWBR=4;
}
 2e2:	ff 91       	pop	r31
 2e4:	ef 91       	pop	r30
 2e6:	bf 91       	pop	r27
 2e8:	af 91       	pop	r26
 2ea:	9f 91       	pop	r25
 2ec:	8f 91       	pop	r24
 2ee:	7f 91       	pop	r23
 2f0:	6f 91       	pop	r22
 2f2:	5f 91       	pop	r21
 2f4:	4f 91       	pop	r20
 2f6:	3f 91       	pop	r19
 2f8:	2f 91       	pop	r18
 2fa:	0f 90       	pop	r0
 2fc:	0f be       	out	0x3f, r0	; 63
 2fe:	0f 90       	pop	r0
 300:	1f 90       	pop	r1
 302:	18 95       	reti

00000304 <DelayMs>:
void DelayMs(uint t)
{
	uint i;
		for(i=0;i<t;i++)
 304:	00 97       	sbiw	r24, 0x00	; 0
 306:	61 f0       	breq	.+24     	; 0x320 <DelayMs+0x1c>
 308:	20 e0       	ldi	r18, 0x00	; 0
 30a:	30 e0       	ldi	r19, 0x00	; 0
    milliseconds can be achieved.
 */
void
_delay_loop_2(uint16_t __count)
{
	__asm__ volatile (
 30c:	46 ed       	ldi	r20, 0xD6	; 214
 30e:	56 e0       	ldi	r21, 0x06	; 6
 310:	fa 01       	movw	r30, r20
 312:	31 97       	sbiw	r30, 0x01	; 1
 314:	f1 f7       	brne	.-4      	; 0x312 <DelayMs+0xe>
 316:	2f 5f       	subi	r18, 0xFF	; 255
 318:	3f 4f       	sbci	r19, 0xFF	; 255
 31a:	28 17       	cp	r18, r24
 31c:	39 07       	cpc	r19, r25
 31e:	c1 f7       	brne	.-16     	; 0x310 <DelayMs+0xc>
 320:	08 95       	ret

00000322 <SPI_595T>:
			_delay_loop_2(250*7);
}
void SPI_595T(uchar a)
{
	SPDR=a;
 322:	8e bd       	out	0x2e, r24	; 46
	while(!(SPSR&(1<<SPIF)))
 324:	0d b4       	in	r0, 0x2d	; 45
 326:	07 fe       	sbrs	r0, 7
 328:	fd cf       	rjmp	.-6      	; 0x324 <SPI_595T+0x2>
	{
		;
	}
}
 32a:	08 95       	ret

0000032c <displayNumber>:
void displayNumber(uchar num,uchar hex)

{
 32c:	cf 93       	push	r28
 32e:	48 2f       	mov	r20, r24
	uchar buf[2];
	uchar temp;
	CLR_SHC;
 330:	5b 98       	cbi	0x0b, 3	; 11
	if(hex)
 332:	66 23       	and	r22, r22
 334:	71 f0       	breq	.+28     	; 0x352 <displayNumber+0x26>
	{
		buf[0]=g_aDisplayBuf[num>>4];
 336:	82 95       	swap	r24
 338:	8f 70       	andi	r24, 0x0F	; 15
 33a:	20 e0       	ldi	r18, 0x00	; 0
 33c:	31 e0       	ldi	r19, 0x01	; 1
 33e:	f9 01       	movw	r30, r18
 340:	e8 0f       	add	r30, r24
 342:	f1 1d       	adc	r31, r1
 344:	c0 81       	ld	r28, Z
		buf[1]=g_aDisplayBuf[num&0x0f];
 346:	4f 70       	andi	r20, 0x0F	; 15
 348:	24 0f       	add	r18, r20
 34a:	31 1d       	adc	r19, r1
 34c:	f9 01       	movw	r30, r18
 34e:	50 81       	ld	r21, Z
 350:	1c c0       	rjmp	.+56     	; 0x38a <displayNumber+0x5e>
	}
	else
	{
		buf[1]=g_aDisplayBuf[num%10];
 352:	aa e0       	ldi	r26, 0x0A	; 10
 354:	6a 2f       	mov	r22, r26
 356:	0e 94 25 02 	call	0x44a	; 0x44a <__udivmodqi4>
 35a:	20 e0       	ldi	r18, 0x00	; 0
 35c:	31 e0       	ldi	r19, 0x01	; 1
 35e:	f9 01       	movw	r30, r18
 360:	e9 0f       	add	r30, r25
 362:	f1 1d       	adc	r31, r1
 364:	50 81       	ld	r21, Z
			temp=num%100;
 366:	84 2f       	mov	r24, r20
 368:	64 e6       	ldi	r22, 0x64	; 100
 36a:	0e 94 25 02 	call	0x44a	; 0x44a <__udivmodqi4>
 36e:	89 2f       	mov	r24, r25
		buf[0]=g_aDisplayBuf[temp/10];
 370:	6a 2f       	mov	r22, r26
 372:	0e 94 25 02 	call	0x44a	; 0x44a <__udivmodqi4>
 376:	28 0f       	add	r18, r24
 378:	31 1d       	adc	r19, r1
 37a:	f9 01       	movw	r30, r18
 37c:	c0 81       	ld	r28, Z
			temp=num/100;
		if(num<10)
 37e:	4a 30       	cpi	r20, 0x0A	; 10
 380:	08 f4       	brcc	.+2      	; 0x384 <displayNumber+0x58>
			buf[0]&=0x7F; //第一个数码管小数点表示百位1
 382:	cf 77       	andi	r28, 0x7F	; 127
		if(temp>1)
 384:	48 3c       	cpi	r20, 0xC8	; 200
 386:	08 f0       	brcs	.+2      	; 0x38a <displayNumber+0x5e>
			buf[0]|=0x80;//两个数码管小数点表示百位2
 388:	c0 68       	ori	r28, 0x80	; 128
	}
	SPI_595T(buf[1]);
 38a:	85 2f       	mov	r24, r21
 38c:	0e 94 91 01 	call	0x322	; 0x322 <SPI_595T>
	SPI_595T(buf[0]);
 390:	8c 2f       	mov	r24, r28
 392:	0e 94 91 01 	call	0x322	; 0x322 <SPI_595T>
	SET_SHC;
 396:	5b 9a       	sbi	0x0b, 3	; 11
	
}
 398:	cf 91       	pop	r28
 39a:	08 95       	ret

0000039c <Port_init>:
void Port_init(void)
{
	PORTB=0x00;
 39c:	15 b8       	out	0x05, r1	; 5
	DDRB=0x3F;
 39e:	8f e3       	ldi	r24, 0x3F	; 63
 3a0:	84 b9       	out	0x04, r24	; 4
	PORTC=0xff;
 3a2:	8f ef       	ldi	r24, 0xFF	; 255
 3a4:	88 b9       	out	0x08, r24	; 8
	DDRC=0x00;
 3a6:	17 b8       	out	0x07, r1	; 7
	PORTD=0x00;
 3a8:	1b b8       	out	0x0b, r1	; 11
	DDRD=0x08;
 3aa:	88 e0       	ldi	r24, 0x08	; 8
 3ac:	8a b9       	out	0x0a, r24	; 10
}
 3ae:	08 95       	ret

000003b0 <Spi_init>:
void Spi_init(void)
{
	DDRB|=_BV(PB5)|_BV(PB3);
 3b0:	84 b1       	in	r24, 0x04	; 4
 3b2:	88 62       	ori	r24, 0x28	; 40
 3b4:	84 b9       	out	0x04, r24	; 4
	SPCR=0x51;
 3b6:	81 e5       	ldi	r24, 0x51	; 81
 3b8:	8c bd       	out	0x2c, r24	; 44
	SPSR=0x00;
 3ba:	1d bc       	out	0x2d, r1	; 45
}
 3bc:	08 95       	ret

000003be <main>:
int main(void)
{
	Port_init();
 3be:	0e 94 ce 01 	call	0x39c	; 0x39c <Port_init>
	Spi_init();
 3c2:	0e 94 d8 01 	call	0x3b0	; 0x3b0 <Spi_init>
	Twi_Init();
 3c6:	0e 94 53 00 	call	0xa6	; 0xa6 <Twi_Init>
	DelayMs(100);
 3ca:	84 e6       	ldi	r24, 0x64	; 100
 3cc:	90 e0       	ldi	r25, 0x00	; 0
 3ce:	0e 94 82 01 	call	0x304	; 0x304 <DelayMs>
	cli();
 3d2:	f8 94       	cli
	Timer1_init();
 3d4:	0e 94 45 01 	call	0x28a	; 0x28a <Timer1_init>
	MCUCR=0x00;
 3d8:	15 be       	out	0x35, r1	; 53
	//GICR=0x00;
	TIMSK1=0x01;
 3da:	81 e0       	ldi	r24, 0x01	; 1
 3dc:	80 93 6f 00 	sts	0x006F, r24
	sei();
 3e0:	78 94       	sei
    {
      uchar tem;
	  //loop_until_bit_is_set(UCSRA,UDRE);
	  //UDR=buff[0];
	  DelayMs(600);
	  tem=((0x0f&(buff[1]>>4))*10/16);
 3e2:	01 e1       	ldi	r16, 0x11	; 17
 3e4:	11 e0       	ldi	r17, 0x01	; 1
	  displayNumber(buff[0],0);
 3e6:	0f 2e       	mov	r0, r31
 3e8:	f0 e1       	ldi	r31, 0x10	; 16
 3ea:	ef 2e       	mov	r14, r31
 3ec:	f1 e0       	ldi	r31, 0x01	; 1
 3ee:	ff 2e       	mov	r15, r31
 3f0:	f0 2d       	mov	r31, r0
    while(1)
    {
      uchar tem;
	  //loop_until_bit_is_set(UCSRA,UDRE);
	  //UDR=buff[0];
	  DelayMs(600);
 3f2:	88 e5       	ldi	r24, 0x58	; 88
 3f4:	92 e0       	ldi	r25, 0x02	; 2
 3f6:	0e 94 82 01 	call	0x304	; 0x304 <DelayMs>
	  tem=((0x0f&(buff[1]>>4))*10/16);
 3fa:	f8 01       	movw	r30, r16
 3fc:	20 81       	ld	r18, Z
 3fe:	82 2f       	mov	r24, r18
 400:	82 95       	swap	r24
 402:	8f 70       	andi	r24, 0x0F	; 15
 404:	90 e0       	ldi	r25, 0x00	; 0
 406:	88 0f       	add	r24, r24
 408:	99 1f       	adc	r25, r25
 40a:	ec 01       	movw	r28, r24
 40c:	cc 0f       	add	r28, r28
 40e:	dd 1f       	adc	r29, r29
 410:	cc 0f       	add	r28, r28
 412:	dd 1f       	adc	r29, r29
 414:	c8 0f       	add	r28, r24
 416:	d9 1f       	adc	r29, r25
 418:	dd 23       	and	r29, r29
 41a:	0c f4       	brge	.+2      	; 0x41e <main+0x60>
 41c:	2f 96       	adiw	r28, 0x0f	; 15
 41e:	d5 95       	asr	r29
 420:	c7 95       	ror	r28
 422:	d5 95       	asr	r29
 424:	c7 95       	ror	r28
 426:	d5 95       	asr	r29
 428:	c7 95       	ror	r28
 42a:	d5 95       	asr	r29
 42c:	c7 95       	ror	r28
	  displayNumber(buff[0],0);
 42e:	f7 01       	movw	r30, r14
 430:	80 81       	ld	r24, Z
 432:	60 e0       	ldi	r22, 0x00	; 0
 434:	0e 94 96 01 	call	0x32c	; 0x32c <displayNumber>
	  DelayMs(1000);
 438:	88 ee       	ldi	r24, 0xE8	; 232
 43a:	93 e0       	ldi	r25, 0x03	; 3
 43c:	0e 94 82 01 	call	0x304	; 0x304 <DelayMs>
	  displayNumber(tem,0);
 440:	8c 2f       	mov	r24, r28
 442:	60 e0       	ldi	r22, 0x00	; 0
 444:	0e 94 96 01 	call	0x32c	; 0x32c <displayNumber>
 448:	d4 cf       	rjmp	.-88     	; 0x3f2 <main+0x34>

0000044a <__udivmodqi4>:
 44a:	99 1b       	sub	r25, r25
 44c:	79 e0       	ldi	r23, 0x09	; 9
 44e:	04 c0       	rjmp	.+8      	; 0x458 <__udivmodqi4_ep>

00000450 <__udivmodqi4_loop>:
 450:	99 1f       	adc	r25, r25
 452:	96 17       	cp	r25, r22
 454:	08 f0       	brcs	.+2      	; 0x458 <__udivmodqi4_ep>
 456:	96 1b       	sub	r25, r22

00000458 <__udivmodqi4_ep>:
 458:	88 1f       	adc	r24, r24
 45a:	7a 95       	dec	r23
 45c:	c9 f7       	brne	.-14     	; 0x450 <__udivmodqi4_loop>
 45e:	80 95       	com	r24
 460:	08 95       	ret

00000462 <_exit>:
 462:	f8 94       	cli

00000464 <__stop_program>:
 464:	ff cf       	rjmp	.-2      	; 0x464 <__stop_program>
